******************************************************************************
             TMS320C2000 Linker PC v6.1.3                      
******************************************************************************
>> Linked Tue May 12 17:32:22 2015

OUTPUT FILE NAME:   <Centralized_Control.out>
ENTRY POINT SYMBOL: "_c_int00"  address: 00009965


MEMORY CONFIGURATION

         name            origin    length      used     unused   attr    fill
----------------------  --------  ---------  --------  --------  ----  --------
PAGE 0:
  BEGIN                 00000000   00000002  00000002  00000000  RWIX
  BOOT_RSVD             00000002   0000004e  00000000  0000004e  RWIX
  RAMM0                 00000050   000003b0  00000000  000003b0  RWIX
  RAML                  00008000   00004000  000035d6  00000a2a  RWIX
  CSM_RSVD              0033ff80   00000076  00000000  00000076  RWIX
  CSM_PWL               0033fff8   00000008  00000000  00000008  RWIX
  ADC_CAL               00380080   00000009  00000007  00000002  RWIX
  IQTABLES              003fe000   00000b50  00000000  00000b50  RWIX
  IQTABLES2             003feb50   0000008c  00000000  0000008c  RWIX
  FPUTABLES             003febdc   000006a0  00000000  000006a0  RWIX
  BOOTROM               003ff27c   00000d44  00000000  00000d44  RWIX
  RESET                 003fffc0   00000002  00000000  00000002  RWIX

PAGE 1:
  RAMM1                 00000400   00000400  00000300  00000100  RWIX
  DEV_EMU               00000880   00000180  000000d0  000000b0  RWIX
  FLASH_REGS            00000a80   00000060  00000008  00000058  RWIX
  CSM                   00000ae0   00000010  00000010  00000000  RWIX
  ADC_MIRROR            00000b00   00000010  00000010  00000000  RWIX
  XINTF                 00000b20   00000020  0000001e  00000002  RWIX
  CPU_TIMER0            00000c00   00000008  00000008  00000000  RWIX
  CPU_TIMER1            00000c08   00000008  00000008  00000000  RWIX
  CPU_TIMER2            00000c10   00000008  00000008  00000000  RWIX
  PIE_CTRL              00000ce0   00000020  0000001a  00000006  RWIX
  PIE_VECT              00000d00   00000100  00000100  00000000  RWIX
  DMA                   00001000   00000200  000000e0  00000120  RWIX
  ZONE0                 00004000   00001000  00000000  00001000  RWIX
  MCBSPA                00005000   00000040  00000025  0000001b  RWIX
  MCBSPB                00005040   00000040  00000025  0000001b  RWIX
  ECANA                 00006000   00000040  00000034  0000000c  RWIX
  ECANA_LAM             00006040   00000040  00000040  00000000  RWIX
  ECANA_MOTS            00006080   00000040  00000040  00000000  RWIX
  ECANA_MOTO            000060c0   00000040  00000040  00000000  RWIX
  ECANA_MBOX            00006100   00000100  00000100  00000000  RWIX
  ECANB                 00006200   00000040  00000034  0000000c  RWIX
  ECANB_LAM             00006240   00000040  00000040  00000000  RWIX
  ECANB_MOTS            00006280   00000040  00000040  00000000  RWIX
  ECANB_MOTO            000062c0   00000040  00000040  00000000  RWIX
  ECANB_MBOX            00006300   00000100  00000100  00000000  RWIX
  EPWM1                 00006800   00000022  00000022  00000000  RWIX
  EPWM2                 00006840   00000022  00000022  00000000  RWIX
  EPWM3                 00006880   00000022  00000022  00000000  RWIX
  EPWM4                 000068c0   00000022  00000022  00000000  RWIX
  EPWM5                 00006900   00000022  00000022  00000000  RWIX
  EPWM6                 00006940   00000022  00000022  00000000  RWIX
  ECAP1                 00006a00   00000020  00000020  00000000  RWIX
  ECAP2                 00006a20   00000020  00000020  00000000  RWIX
  ECAP3                 00006a40   00000020  00000020  00000000  RWIX
  ECAP4                 00006a60   00000020  00000020  00000000  RWIX
  ECAP5                 00006a80   00000020  00000020  00000000  RWIX
  ECAP6                 00006aa0   00000020  00000020  00000000  RWIX
  EQEP1                 00006b00   00000040  00000040  00000000  RWIX
  EQEP2                 00006b40   00000040  00000040  00000000  RWIX
  GPIOCTRL              00006f80   00000040  0000002e  00000012  RWIX
  GPIODAT               00006fc0   00000020  00000020  00000000  RWIX
  GPIOINT               00006fe0   00000020  0000000a  00000016  RWIX
  SYSTEM                00007010   00000020  00000020  00000000  RWIX
  SPIA                  00007040   00000010  00000010  00000000  RWIX
  SCIA                  00007050   00000010  00000010  00000000  RWIX
  XINTRUPT              00007070   00000010  00000010  00000000  RWIX
  ADC                   00007100   00000020  0000001e  00000002  RWIX
  SCIB                  00007750   00000010  00000010  00000000  RWIX
  SCIC                  00007770   00000010  00000010  00000000  RWIX
  I2CA                  00007900   00000040  00000022  0000001e  RWIX
  RAML4                 0000c000   00004000  000026ba  00001946  RWIX
  ZONE6                 00100000   00040000  00000000  00040000  RWIX
  ZONE7                 00200000   00100000  00000000  00100000  RWIX
  CSM_PWL               0033fff8   00000008  00000008  00000000  RWIX


SECTION ALLOCATION MAP

 output                                  attributes/
section   page    origin      length       input sections
--------  ----  ----------  ----------   ----------------
codestart 
*          0    00000000    00000002     
                  00000000    00000002     DSP2833x_CodeStartBranch.obj (codestart)

.pinit     0    00008000    00000000     UNINITIALIZED

.text      0    00008000    00001aa4     
                  00008000    000011da     F28335A_main.obj (.text)
                  000091da    00000332     DSP2833x_DefaultIsr.obj (.text:retain)
                  0000950c    00000106     DSP2833x_Xintf.obj (.text)
                  00009612    000000ba     DSP2833x_Gpio.obj (.text)
                  000096cc    000000ab     DSP2833x_SysInit.obj (.text)
                  00009777    0000008e     DSP2833x_Sci.obj (.text)
                  00009805    00000088     rts2800_fpu32.lib : fs_div.obj (.text)
                  0000988d    0000007a     DSP2833x_CpuTimers.obj (.text)
                  00009907    0000005e     DSP2833x_Spi.obj (.text)
                  00009965    00000046     rts2800_fpu32.lib : boot.obj (.text)
                  000099ab    00000028     DSP2833x_I2C.obj (.text)
                  000099d3    00000028     DSP2833x_PieCtrl.obj (.text)
                  000099fb    00000001     --HOLE-- [fill = 0]
                  000099fc    00000023     rts2800_fpu32.lib : sqrt.obj (.text)
                  00009a1f    00000022                       : i_div.obj (.text)
                  00009a41    00000020     DSP2833x_PieVect.obj (.text)
                  00009a61    00000019     rts2800_fpu32.lib : args_main.obj (.text)
                  00009a7a    00000019                       : exit.obj (.text)
                  00009a93    00000009                       : _lock.obj (.text)
                  00009a9c    00000008     DSP2833x_CodeStartBranch.obj (.text)

ramfuncs   0    00009aa4    0000129a     
                  00009aa4    00000b11     F28335A_main.obj (ramfuncs:retain)
                  0000a5b5    00000789     F28335A_main.obj (ramfuncs)

.cinit     0    0000ad3e    00000898     
                  0000ad3e    0000087e     F28335A_main.obj (.cinit)
                  0000b5bc    0000000a     rts2800_fpu32.lib : _lock.obj (.cinit)
                  0000b5c6    0000000a                       : exit.obj (.cinit)
                  0000b5d0    00000004                       : errno.obj (.cinit)
                  0000b5d4    00000002     --HOLE-- [fill = 0]

csm_rsvd   0    0033ff80    00000000     DSECT

csmpasswds 
*          0    0033fff8    00000000     DSECT

.adc_cal   0    00380080    00000007     NOLOAD SECTION
                  00380080    00000007     DSP2833x_ADC_cal.obj (.adc_cal)

.reset     0    003fffc0    00000002     DSECT
                  003fffc0    00000002     rts2800_fpu32.lib : boot.obj (.reset)

.stack     1    00000400    00000300     UNINITIALIZED
                  00000400    00000300     --HOLE--

DevEmuRegsFile 
*          1    00000880    000000d0     UNINITIALIZED
                  00000880    000000d0     DSP2833x_GlobalVariableDefs.obj (DevEmuRegsFile)

FlashRegsFile 
*          1    00000a80    00000008     UNINITIALIZED
                  00000a80    00000008     DSP2833x_GlobalVariableDefs.obj (FlashRegsFile)

CsmRegsFile 
*          1    00000ae0    00000010     UNINITIALIZED
                  00000ae0    00000010     DSP2833x_GlobalVariableDefs.obj (CsmRegsFile)

AdcMirrorFile 
*          1    00000b00    00000010     UNINITIALIZED
                  00000b00    00000010     DSP2833x_GlobalVariableDefs.obj (AdcMirrorFile)

XintfRegsFile 
*          1    00000b20    0000001e     UNINITIALIZED
                  00000b20    0000001e     DSP2833x_GlobalVariableDefs.obj (XintfRegsFile)

CpuTimer0RegsFile 
*          1    00000c00    00000008     UNINITIALIZED
                  00000c00    00000008     DSP2833x_GlobalVariableDefs.obj (CpuTimer0RegsFile)

CpuTimer1RegsFile 
*          1    00000c08    00000008     UNINITIALIZED
                  00000c08    00000008     DSP2833x_GlobalVariableDefs.obj (CpuTimer1RegsFile)

CpuTimer2RegsFile 
*          1    00000c10    00000008     UNINITIALIZED
                  00000c10    00000008     DSP2833x_GlobalVariableDefs.obj (CpuTimer2RegsFile)

PieCtrlRegsFile 
*          1    00000ce0    0000001a     UNINITIALIZED
                  00000ce0    0000001a     DSP2833x_GlobalVariableDefs.obj (PieCtrlRegsFile)

PieVectTableFile 
*          1    00000d00    00000100     UNINITIALIZED
                  00000d00    00000100     DSP2833x_GlobalVariableDefs.obj (PieVectTableFile)

DmaRegsFile 
*          1    00001000    000000e0     UNINITIALIZED
                  00001000    000000e0     DSP2833x_GlobalVariableDefs.obj (DmaRegsFile)

McbspaRegsFile 
*          1    00005000    00000025     UNINITIALIZED
                  00005000    00000025     DSP2833x_GlobalVariableDefs.obj (McbspaRegsFile)

McbspbRegsFile 
*          1    00005040    00000025     UNINITIALIZED
                  00005040    00000025     DSP2833x_GlobalVariableDefs.obj (McbspbRegsFile)

ECanaRegsFile 
*          1    00006000    00000034     UNINITIALIZED
                  00006000    00000034     DSP2833x_GlobalVariableDefs.obj (ECanaRegsFile)

ECanaLAMRegsFile 
*          1    00006040    00000040     UNINITIALIZED
                  00006040    00000040     DSP2833x_GlobalVariableDefs.obj (ECanaLAMRegsFile)

ECanaMOTSRegsFile 
*          1    00006080    00000040     UNINITIALIZED
                  00006080    00000040     DSP2833x_GlobalVariableDefs.obj (ECanaMOTSRegsFile)

ECanaMOTORegsFile 
*          1    000060c0    00000040     UNINITIALIZED
                  000060c0    00000040     DSP2833x_GlobalVariableDefs.obj (ECanaMOTORegsFile)

ECanaMboxesFile 
*          1    00006100    00000100     UNINITIALIZED
                  00006100    00000100     DSP2833x_GlobalVariableDefs.obj (ECanaMboxesFile)

ECanbRegsFile 
*          1    00006200    00000034     UNINITIALIZED
                  00006200    00000034     DSP2833x_GlobalVariableDefs.obj (ECanbRegsFile)

ECanbLAMRegsFile 
*          1    00006240    00000040     UNINITIALIZED
                  00006240    00000040     DSP2833x_GlobalVariableDefs.obj (ECanbLAMRegsFile)

ECanbMOTSRegsFile 
*          1    00006280    00000040     UNINITIALIZED
                  00006280    00000040     DSP2833x_GlobalVariableDefs.obj (ECanbMOTSRegsFile)

ECanbMOTORegsFile 
*          1    000062c0    00000040     UNINITIALIZED
                  000062c0    00000040     DSP2833x_GlobalVariableDefs.obj (ECanbMOTORegsFile)

ECanbMboxesFile 
*          1    00006300    00000100     UNINITIALIZED
                  00006300    00000100     DSP2833x_GlobalVariableDefs.obj (ECanbMboxesFile)

EPwm1RegsFile 
*          1    00006800    00000022     UNINITIALIZED
                  00006800    00000022     DSP2833x_GlobalVariableDefs.obj (EPwm1RegsFile)

EPwm2RegsFile 
*          1    00006840    00000022     UNINITIALIZED
                  00006840    00000022     DSP2833x_GlobalVariableDefs.obj (EPwm2RegsFile)

EPwm3RegsFile 
*          1    00006880    00000022     UNINITIALIZED
                  00006880    00000022     DSP2833x_GlobalVariableDefs.obj (EPwm3RegsFile)

EPwm4RegsFile 
*          1    000068c0    00000022     UNINITIALIZED
                  000068c0    00000022     DSP2833x_GlobalVariableDefs.obj (EPwm4RegsFile)

EPwm5RegsFile 
*          1    00006900    00000022     UNINITIALIZED
                  00006900    00000022     DSP2833x_GlobalVariableDefs.obj (EPwm5RegsFile)

EPwm6RegsFile 
*          1    00006940    00000022     UNINITIALIZED
                  00006940    00000022     DSP2833x_GlobalVariableDefs.obj (EPwm6RegsFile)

ECap1RegsFile 
*          1    00006a00    00000020     UNINITIALIZED
                  00006a00    00000020     DSP2833x_GlobalVariableDefs.obj (ECap1RegsFile)

ECap2RegsFile 
*          1    00006a20    00000020     UNINITIALIZED
                  00006a20    00000020     DSP2833x_GlobalVariableDefs.obj (ECap2RegsFile)

ECap3RegsFile 
*          1    00006a40    00000020     UNINITIALIZED
                  00006a40    00000020     DSP2833x_GlobalVariableDefs.obj (ECap3RegsFile)

ECap4RegsFile 
*          1    00006a60    00000020     UNINITIALIZED
                  00006a60    00000020     DSP2833x_GlobalVariableDefs.obj (ECap4RegsFile)

ECap5RegsFile 
*          1    00006a80    00000020     UNINITIALIZED
                  00006a80    00000020     DSP2833x_GlobalVariableDefs.obj (ECap5RegsFile)

ECap6RegsFile 
*          1    00006aa0    00000020     UNINITIALIZED
                  00006aa0    00000020     DSP2833x_GlobalVariableDefs.obj (ECap6RegsFile)

EQep1RegsFile 
*          1    00006b00    00000040     UNINITIALIZED
                  00006b00    00000040     DSP2833x_GlobalVariableDefs.obj (EQep1RegsFile)

EQep2RegsFile 
*          1    00006b40    00000040     UNINITIALIZED
                  00006b40    00000040     DSP2833x_GlobalVariableDefs.obj (EQep2RegsFile)

GpioCtrlRegsFile 
*          1    00006f80    0000002e     UNINITIALIZED
                  00006f80    0000002e     DSP2833x_GlobalVariableDefs.obj (GpioCtrlRegsFile)

GpioDataRegsFile 
*          1    00006fc0    00000020     UNINITIALIZED
                  00006fc0    00000020     DSP2833x_GlobalVariableDefs.obj (GpioDataRegsFile)

GpioIntRegsFile 
*          1    00006fe0    0000000a     UNINITIALIZED
                  00006fe0    0000000a     DSP2833x_GlobalVariableDefs.obj (GpioIntRegsFile)

SysCtrlRegsFile 
*          1    00007010    00000020     UNINITIALIZED
                  00007010    00000020     DSP2833x_GlobalVariableDefs.obj (SysCtrlRegsFile)

SpiaRegsFile 
*          1    00007040    00000010     UNINITIALIZED
                  00007040    00000010     DSP2833x_GlobalVariableDefs.obj (SpiaRegsFile)

SciaRegsFile 
*          1    00007050    00000010     UNINITIALIZED
                  00007050    00000010     DSP2833x_GlobalVariableDefs.obj (SciaRegsFile)

XIntruptRegsFile 
*          1    00007070    00000010     UNINITIALIZED
                  00007070    00000010     DSP2833x_GlobalVariableDefs.obj (XIntruptRegsFile)

AdcRegsFile 
*          1    00007100    0000001e     UNINITIALIZED
                  00007100    0000001e     DSP2833x_GlobalVariableDefs.obj (AdcRegsFile)

ScibRegsFile 
*          1    00007750    00000010     UNINITIALIZED
                  00007750    00000010     DSP2833x_GlobalVariableDefs.obj (ScibRegsFile)

ScicRegsFile 
*          1    00007770    00000010     UNINITIALIZED
                  00007770    00000010     DSP2833x_GlobalVariableDefs.obj (ScicRegsFile)

I2caRegsFile 
*          1    00007900    00000022     UNINITIALIZED
                  00007900    00000022     DSP2833x_GlobalVariableDefs.obj (I2caRegsFile)

.ebss      1    0000c000    00001bb1     UNINITIALIZED
                  0000c000    00001b90     F28335A_main.obj (.ebss)
                  0000db90    00000018     DSP2833x_CpuTimers.obj (.ebss)
                  0000dba8    00000004     rts2800_fpu32.lib : _lock.obj (.ebss)
                  0000dbac    00000004                       : exit.obj (.ebss)
                  0000dbb0    00000001                       : errno.obj (.ebss)

.econst    1    0000dbb2    00000b09     
                  0000dbb2    00000802     F28335A_main.obj (.econst:_SIN_TABLE)
                  0000e3b4    00000202     F28335A_main.obj (.econst:_ARCTG_TABLE)
                  0000e5b6    00000100     DSP2833x_PieVect.obj (.econst)
                  0000e6b6    00000004     F28335A_main.obj (.econst:_$P$T0$1)
                  0000e6ba    00000001     F28335A_main.obj (.econst)

CsmPwlFile 
*          1    0033fff8    00000008     UNINITIALIZED
                  0033fff8    00000008     DSP2833x_GlobalVariableDefs.obj (CsmPwlFile)


GLOBAL SYMBOLS: SORTED ALPHABETICALLY BY Name 

address    name
--------   ----
00008000   .text
00009a7a   C$$EXIT
00009805   FS$$DIV
00009a1f   I$$DIV
00009a30   I$$MOD
0000a8d9   _ACON2S2R_W
0000a868   _ACON3S2S
000092c6   _ADCINT_ISR
0000c120   _ADC_IA
0000c11e   _ADC_IB
0000c124   _ADC_IC
0000c0fa   _ADC_VA
0000c0f8   _ADC_VB
0000c0fe   _ADC_VC
00380080   _ADC_cal
0000a6ac   _ARCTAN
0000e3b4   _ARCTG_TABLE
00000b00   _AdcMirror
00007100   _AdcRegs
0000c1ee   _Balance
0000c0a8   _Balance_Start_Time
0000c077   _BiCount
0000c11a   _BiMaxInitial
0000c11c   _BiMinInitial
0000c116   _BiVari
0000c039   _COM_ALL_rate
0000c047   _COM_EXT_count
0000c023   _COM_I0
0000c01c   _COM_IA
0000c01d   _COM_IB
0000c03e   _COM_IC
0000c03d   _COM_IH1
0000c00b   _COM_IH1_RATE
0000c00d   _COM_IH2
0000c00c   _COM_IH2_RATE
0000c009   _COM_IH3
0000c00a   _COM_IH3_RATE
0000c03f   _COM_IHB_RATE
0000c049   _COM_Ih_max
0000c007   _COM_Iz
0000c012   _COM_Kp
0000c00f   _COM_Ti
0000c000   _COM_Tu
0000c005   _COM_U
0000c006   _COM_UAB
0000c01e   _COM_UBC
0000c01f   _COM_UCA
0000c048   _COM_UDCREF
0000c040   _COM_UDC_Max
0000c001   _COM_Ua
0000c002   _COM_Udb
0000c016   _COM_Udc
0000c114   _COM_Udc1
0000c008   _COM_Uz
0000c003   _COM_ki
000083e0   _COM_main
0000a8a6   _CON2S2R_W
0000a828   _CON3S2S
0000c041   _C_data_count1
0000c042   _C_data_count2
0000c04a   _C_data_count3
0000c038   _C_way
0000c06f   _Chose_angle
0000c214   _CloseGrid
0000c034   _CloseLoop_Grid
0000c394   _Com_date
000098cc   _ConfigCpuTimer
0000c1fe   _Count
0000dba0   _CpuTimer0
0000c060   _CpuTimer0Count
00000c00   _CpuTimer0Regs
0000db90   _CpuTimer1
00000c08   _CpuTimer1Regs
0000db98   _CpuTimer2
00000c10   _CpuTimer2Regs
0033fff8   _CsmPwl
00000ae0   _CsmRegs
0000c140   _Curr_PI1_integ
0000c0d8   _Curr_PI1_out
0000c0d6   _Curr_PI2_integ
0000c0d2   _Curr_PI2_out
0000c3c0   _Current_IA
0000c4c0   _Current_IB
0000c5c0   _Current_IC
0000a5b5   _Current_PI1
0000a60a   _Current_PI2
0000c01a   _Current_flag
0000c06b   _DA0
0000c06a   _DA1
0000c06d   _DA2
0000c06c   _DA3
000091f1   _DATALOG_ISR
0000c1ea   _DA_Current
0000c1c6   _DA_Current_dq
00008fef   _DA_Initialization
0000c1ca   _DA_InterPhase
0000aa5a   _DA_OUT
0000c1c8   _DA_OutPhase
0000c1e8   _DA_Phase
0000c1d6   _DA_Phase_PLL
0000c067   _DA_Signal
0000c04e   _DA_Switch
0000c300   _DA_Test
0000c1e6   _DA_Voltage
0000c1c4   _DA_Voltage_A
0000c1d8   _DA_Voltage_B
0000c1d4   _DA_Voltage_C
0000c1c2   _DA_Voltage_neg
0000c0fc   _DC_A1
0000c0f2   _DC_A2
0000c0f0   _DC_A3
0000c0f6   _DC_B1
0000c0f4   _DC_B2
0000c10a   _DC_B3
0000c108   _DC_C1
0000c122   _DC_C2
0000c10c   _DC_C3
0000c046   _DC_Step
000093ee   _DINTCH1_ISR
000093f8   _DINTCH2_ISR
00009402   _DINTCH3_ISR
0000940c   _DINTCH4_ISR
00009416   _DINTCH5_ISR
00009420   _DINTCH6_ISR
0000ad0b   _DataCheck
0000c064   _DataCheck_Flag
0000c066   _Data_Check_A1
0000c069   _Data_Check_A2
0000c068   _Data_Check_A3
0000c06e   _Data_Check_B1
0000c074   _Data_Check_B2
0000c073   _Data_Check_B3
0000c076   _Data_Check_C1
0000c075   _Data_Check_C2
0000c070   _Data_Check_C3
00000880   _DevEmuRegs
000096df   _DisableDog
00008586   _Display
0000c152   _DisplayLS1
0000c12a   _DisplayLS2
00008dfc   _Display_CON3S2S
000087f4   _Display_Current
00008678   _Display_Para
00008b47   _Display_Send_Ready
00001000   _DmaRegs
0000947a   _ECAN0INTA_ISR
0000948e   _ECAN0INTB_ISR
00009484   _ECAN1INTA_ISR
00009498   _ECAN1INTB_ISR
00009362   _ECAP1_INT_ISR
0000936c   _ECAP2_INT_ISR
00009376   _ECAP3_INT_ISR
00009380   _ECAP4_INT_ISR
0000938a   _ECAP5_INT_ISR
00009394   _ECAP6_INT_ISR
00006040   _ECanaLAMRegs
000060c0   _ECanaMOTORegs
00006080   _ECanaMOTSRegs
00006100   _ECanaMboxes
00006000   _ECanaRegs
00006240   _ECanbLAMRegs
000062c0   _ECanbMOTORegs
00006280   _ECanbMOTSRegs
00006300   _ECanbMboxes
00006200   _ECanbRegs
00006a00   _ECap1Regs
00006a20   _ECap2Regs
00006a40   _ECap3Regs
00006a60   _ECap4Regs
00006a80   _ECap5Regs
00006aa0   _ECap6Regs
0000c072   _EEPROM_Compare
0000c04d   _EEPROM_No_WRed_Sign
000094eb   _EMPTY_ISR
00009205   _EMUINT_ISR
00009320   _EPWM1_INT_ISR
000092e4   _EPWM1_TZINT_ISR
0000932d   _EPWM2_INT_ISR
000092ee   _EPWM2_TZINT_ISR
00009337   _EPWM3_INT_ISR
000092f8   _EPWM3_TZINT_ISR
00009341   _EPWM4_INT_ISR
00009302   _EPWM4_TZINT_ISR
0000934e   _EPWM5_INT_ISR
0000930c   _EPWM5_TZINT_ISR
00009358   _EPWM6_INT_ISR
00009316   _EPWM6_TZINT_ISR
00006800   _EPwm1Regs
00006840   _EPwm2Regs
00006880   _EPwm3Regs
000068c0   _EPwm4Regs
00006900   _EPwm5Regs
00006940   _EPwm6Regs
0000939e   _EQEP1_INT_ISR
000093a8   _EQEP2_INT_ISR
00006b00   _EQep1Regs
00006b40   _EQep2Regs
0000c013   _ERROR_flag
000099f2   _EnableInterrupts
0000c071   _Factory_Flag
0000c043   _Fault_flag
00000a80   _FlashRegs
0000c1ec   _General_Protect
00006f80   _GpioCtrlRegs
00006fc0   _GpioDataRegs
00006fe0   _GpioIntRegs
0000c011   _GraphID
0000942a   _I2CINT1A_ISR
00009434   _I2CINT2A_ISR
00007900   _I2caRegs
0000c296   _IASVG
0000c2ac   _IASVG_Max
0000c2a8   _IASVG_Min
0000c29e   _IASVG_Sample
0000c232   _IA_P2P
0000c130   _IA_THETA_neg
0000c292   _IBSVG
0000c2a0   _IBSVG_Sample
0000c234   _IB_P2P
0000c132   _IB_THETA_neg
0000c294   _ICSVG
0000c2a4   _ICSVG_Max
0000c2a6   _ICSVG_Min
0000c29c   _ICSVG_Sample
0000c230   _IC_P2P
0000c12c   _IC_THETA_neg
00009219   _ILLEGAL_ISR
0000c022   _INRL_data
000091da   _INT13_ISR
000091e7   _INT14_ISR
0000c23a   _I_alpha
0000c246   _I_amp
0000c24e   _I_beta
0000c248   _I_d
0000c24a   _I_d_Pre
0000c0e4   _I_derror
0000c244   _I_q
0000c24c   _I_q_Pre
0000c0ee   _I_qerror
0000c22c   _Ialpha_N
0000c22e   _Ibeta_N
0000c222   _Id_N
0000c090   _Id_WL
0000c220   _Id_p
0000c228   _Idref
0000c20e   _InOuterPhase
0000c028   _InPhase_Flag
0000c25e   _In_Ramp
0000c08a   _In_slip
0000988d   _InitCpuTimers0
000098a2   _InitCpuTimers1
000098b7   _InitCpuTimers2
0000aac7   _InitFlash
00009612   _InitGpio
000099ab   _InitI2C
000099bd   _InitI2CGpio
00009013   _InitInterrupts
0000971c   _InitPeripheralClocks
000099d3   _InitPieCtrl
00009a41   _InitPieVectTable
000096e7   _InitPll
000097c0   _InitSci
00009777   _InitSciGpio
0000977e   _InitSciaGpio
00009794   _InitScibGpio
000097aa   _InitScicGpio
00009955   _InitSpi
00009964   _InitSpiGpio
00009907   _InitSpiaGpio
0000992d   _InitSpicGpio
000096cc   _InitSysCtrl
000095ab   _InitXintf
00009553   _InitXintf16Gpio
0000950c   _InitXintf32Gpio
0000c063   _Init_i
0000c01b   _Init_para_flag
0000c210   _InterPhase
0000c1dc   _Ipcc_Amp
0000c236   _Iq_N
0000c092   _Iq_WL
0000c17c   _K_IA
0000c17a   _K_IB
0000c17e   _K_IC
0000c190   _K_UA1
0000c194   _K_UA2
0000c192   _K_UA3
0000c1b6   _K_UAB
0000c184   _K_UB1
0000c188   _K_UB2
0000c186   _K_UB3
0000c176   _K_UBC
0000c1d2   _K_UC1
0000c1cc   _K_UC2
0000c1e4   _K_UC3
0000c0a4   _Kp_P2P_Neg
0000c138   _Kp_P2P_Zero
0000c09e   _Kp_UNeg
0000c240   _LS1
0000c23c   _LS2
0000c238   _LS3
000094e1   _LUF_ISR
000094d7   _LVF_ISR
0000c118   _LineVolSquare
0000c2ec   _Local_DA
0000c05f   _Local_DA_Flag
0000ab69   _Local_DC_Process
000093da   _MRINTA_ISR
000093c6   _MRINTB_ISR
000093e4   _MXINTA_ISR
000093d0   _MXINTB_ISR
0000c2f4   _Main_DA
0000aa69   _Main_DA_OUT
00005000   _McbspaRegs
00005040   _McbspbRegs
00009049   _MemCopy
0000c35e   _MsgBuffer_Receive
0000c34f   _MsgBuffer_Send
0000c061   _NMICount
0000920f   _NMI_ISR
0000c017   _Negative
0000c216   _Omiga
0000c1fc   _Omiga_t
0000c20a   _OpenGrid
0000c212   _OuterPhase
000090aa   _P2P_Balance_Neg_I
0000aae3   _P2P_Balance_Neg_U
00009178   _P2P_Balance_Zero
0000c025   _P2P_Flag_Neg
0000c026   _P2P_Flag_Zero
000094f8   _PIE_RESERVED
0000905e   _PWM_Initialization
0000c380   _Para1_Intdate
0000c311   _Para1_set
0000c340   _Para2_Intdate
0000c308   _Para2_set
0000c045   _Para_SET
0000883a   _Para_set1
000089ed   _Para_set2
00008b1b   _Para_set_end
00000ce0   _PieCtrlRegs
00000d00   _PieVectTable
0000e5b6   _PieVectTableInit
0000c1f2   _Q
0000c102   _Q_REF
0000c1f6   _Q_start_time
00008f7d   _RD_DATA_PROCESS
00008e48   _RD_EEPROM
000091fb   _RTOSINT_ISR
0000c2de   _Read_control
000084f1   _Read_date
0000c044   _Receive_date_error
0000c027   _ReceivedChar
0000c065   _Reset_Flag
00008ee0   _Restore_Factory_Set
0000c014   _Run_Flag
0000c02b   _Run_Stop_Flag
00009452   _SCIRXINTA_ISR
00009466   _SCIRXINTB_ISR
0000943e   _SCIRXINTC_ISR
0000945c   _SCITXINTA_ISR
00009470   _SCITXINTB_ISR
00009448   _SCITXINTC_ISR
0000929e   _SEQ1INT_ISR
000092a8   _SEQ2INT_ISR
0000dbb2   _SIN_TABLE
000093b2   _SPIRXINTA_ISR
000093bc   _SPITXINTA_ISR
00007050   _SciaRegs
00007750   _ScibRegs
00007770   _ScicRegs
000096d5   _ServiceDog
0000a90a   _Sin_Value
0000c202   _Sine_m
0000c20c   _Soft_Protect
00007040   _SpiaRegs
0000c2a2   _Start_Balance
0000c052   _State_A1
0000c053   _State_A2
0000c050   _State_A3
0000c051   _State_B1
0000c055   _State_B2
0000c056   _State_B3
0000c054   _State_C1
0000c04b   _State_C2
0000c04c   _State_C3
00007010   _SysCtrlRegs
0000c024   _THD_IA
0000c021   _THD_IB
0000c015   _THD_IC
0000c2d6   _THETA_C
0000c2ae   _THETA_COM_I
0000c2b4   _THETA_COM_I2S2R
0000c2b8   _THETA_COM_I_N
0000c2b0   _THETA_COM_U2R2S
0000c2c2   _THETA_COM_U2R2S_Open
0000c2c0   _THETA_C_ab
0000c2d2   _THETA_C_test
0000c2b6   _THETA_Com_PLL
0000c2b2   _THETA_Com_Test
0000c276   _THETA_IA
0000c25a   _THETA_IB
0000c256   _THETA_IC
0000c12e   _THETA_Zero
0000c0a2   _THETA_neg
000092d0   _TINT0_ISR
0000c03c   _Ts_Id
0000c03a   _Ts_UDC
0000c03b   _Ts_US
0000c15e   _UA1_pos
0000c164   _UA2_pos
0000c162   _UA3_pos
0000c284   _UABDRF
0000c298   _UAB_Max
0000c29a   _UAB_Min
0000c28a   _UAB_Pre
0000c1a4   _UAB_Sample
0000c174   _UAB_Z
0000c112   _UA_Display
0000c09c   _UA_P2P
0000c15c   _UA_THETA_neg
0000c2cc   _UA_test
0000c158   _UB1_pos
0000c166   _UB2_pos
0000c14c   _UB3_pos
0000c280   _UBCDRF
0000c2d0   _UBC_Max
0000c2aa   _UBC_Min
0000c286   _UBC_Pre
0000c1a6   _UBC_Sample
0000c178   _UBC_Z
0000c128   _UB_Display
0000c096   _UB_P2P
0000c144   _UB_THETA_neg
0000c2ce   _UB_test
0000c15a   _UC1_pos
0000c160   _UC2_pos
0000c14e   _UC3_pos
0000c282   _UCADRF
0000c288   _UCA_Pre
0000c126   _UC_Display
0000c098   _UC_P2P
0000c146   _UC_THETA_neg
0000c2ca   _UC_test
0000c100   _UDCREF
0000c2e5   _UDCREF_Ref
0000c172   _UDC_AR1
0000c16e   _UDC_AR2
0000c1b0   _UDC_AR3
0000c1da   _UDC_Amp
0000c170   _UDC_BR1
0000c16c   _UDC_BR2
0000c1b2   _UDC_BR3
0000c168   _UDC_CR1
0000c1b4   _UDC_CR2
0000c200   _UDC_CR3
0000c154   _UDC_Ki
0000c14a   _UDC_Kp
0000c104   _UDC_Max
0000a65e   _UDC_PI
00008b85   _UDC_PIA1
00008bf0   _UDC_PIA2
00008c5c   _UDC_PIB1
00008cc1   _UDC_PIB2
00008d2c   _UDC_PIC1
00008d91   _UDC_PIC2
0000c22a   _UDC_PI_integ
0000c0ca   _UDC_PI_integ_A1
0000c094   _UDC_PI_integ_A2
0000c0ea   _UDC_PI_integ_A3
0000c0c2   _UDC_PI_integ_B1
0000c0b6   _UDC_PI_integ_B2
0000c0ba   _UDC_PI_integ_B3
0000c0ce   _UDC_PI_integ_C1
0000c0e6   _UDC_PI_integ_C2
0000c0c6   _UDC_PI_integ_C3
0000c226   _UDC_PI_out
0000c0c4   _UDC_PI_out_A1
0000c0ec   _UDC_PI_out_A2
0000c0bc   _UDC_PI_out_A3
0000c0c0   _UDC_PI_out_B1
0000c0b4   _UDC_PI_out_B2
0000c0b8   _UDC_PI_out_B3
0000c0cc   _UDC_PI_out_C1
0000c0d0   _UDC_PI_out_C2
0000c0e2   _UDC_PI_out_C3
0000c1a8   _UDC_Rf2
0000c1be   _UDC_RfA1
0000c1c0   _UDC_RfA2
0000c19e   _UDC_RfA3
0000c1bc   _UDC_RfB1
0000c1b8   _UDC_RfB2
0000c1a0   _UDC_RfB3
0000c1ba   _UDC_RfC1
0000c1a2   _UDC_RfC2
0000c19c   _UDC_RfC3
0000c196   _UDC_ZA1
0000c182   _UDC_ZA2
0000c180   _UDC_ZA3
0000c18a   _UDC_ZB1
0000c1d0   _UDC_ZB2
0000c1ce   _UDC_ZB3
0000c1e0   _UDC_ZC1
0000c1e2   _UDC_ZC2
0000c1de   _UDC_ZC3
0000c16a   _UDC_ZIA
0000c18e   _UDC_ZIB
0000c18c   _UDC_ZIC
0000c1aa   _UDC_aver
0000c198   _UDC_averA
0000c19a   _UDC_averB
0000c1ae   _UDC_averC
0000c1ac   _UDC_aver_Pre
0000c0b2   _UDC_deltA
0000c270   _UDC_deltA1
0000c26c   _UDC_deltA2
0000c268   _UDC_deltA3
0000c0dc   _UDC_deltB
0000c26a   _UDC_deltB1
0000c27e   _UDC_deltB2
0000c27a   _UDC_deltB3
0000c0ae   _UDC_deltC
0000c27c   _UDC_deltC1
0000c278   _UDC_deltC2
0000c274   _UDC_deltC3
0000c0b0   _UDC_delt_alpha
0000c09a   _UDC_delt_beta
0000c224   _UDC_erro
0000c258   _UDC_inA1
0000c254   _UDC_inA2
0000c250   _UDC_inA3
0000c252   _UDC_inB1
0000c266   _UDC_inB2
0000c262   _UDC_inB3
0000c264   _UDC_inC1
0000c260   _UDC_inC2
0000c25c   _UDC_inC3
0000c088   _UDCref_A1
0000c08e   _UDCref_A2
0000c08c   _UDCref_A3
0000c0da   _UDCref_B1
0000c0e0   _UDCref_B2
0000c0de   _UDCref_B3
0000c0e8   _UDCref_C1
0000c0be   _UDCref_C2
0000c0c8   _UDCref_C3
0000c2dc   _US
00009280   _USER10_ISR
0000928a   _USER11_ISR
00009294   _USER12_ISR
00009226   _USER1_ISR
00009230   _USER2_ISR
0000923a   _USER3_ISR
00009244   _USER4_ISR
0000924e   _USER5_ISR
00009258   _USER6_ISR
00009262   _USER7_ISR
0000926c   _USER8_ISR
00009276   _USER9_ISR
0000c2d8   _US_Display
0000c2da   _US_Pre
0000c2ba   _US_d
0000c2c4   _US_q
0000c290   _U_ADRF
0000c28c   _U_BDRF
0000c28e   _U_CDRF
0000c106   _U_FtoI
0000c13a   _U_Zero_amp
0000c07c   _U_alpha_close
0000c086   _U_alpha_close1
0000c2d4   _U_alpha_open_after
0000c2c6   _U_alpha_open_pre
0000c032   _U_aout1
0000c030   _U_aout2
0000c031   _U_aout3
0000c078   _U_aout_close
0000c082   _U_aout_close1
0000c2be   _U_aout_open
0000c07e   _U_beta_close
0000c080   _U_beta_close1
0000c2bc   _U_beta_open_after
0000c2c8   _U_beta_open_pre
0000c02e   _U_bout1
0000c02f   _U_bout2
0000c037   _U_bout3
0000c07a   _U_bout_close
0000c0ac   _U_bout_close1
0000c242   _U_bout_open
0000c035   _U_cout1
0000c036   _U_cout2
0000c033   _U_cout3
0000c084   _U_cout_close
0000c0a6   _U_cout_close1
0000c23e   _U_cout_open
0000c1f4   _U_dF
0000c204   _U_dF1
0000c0a0   _U_delta_amp
0000c142   _U_delta_slip
0000c0d4   _U_dout
0000c148   _U_negU_amp
0000c1fa   _U_neg_Kp
0000c13e   _U_neg_amp
0000c208   _U_qF
0000c206   _U_qF1
0000c0aa   _U_qout
0000c150   _Ud_Ki
0000c156   _Ud_Kp
0000c26e   _Udc_Ramp
0000c13c   _Udc_delta_Ramp
0000c272   _Udc_slip
0000c1f0   _Upcc_Amp
0000c05c   _Version_Erro_Sign
0000e6ba   _Version_No
000092da   _WAKEINT_ISR
00008fb1   _WR_DATA_PROCESS
00008e9e   _WR_EEPROM
000092b2   _XINT1_ISR
000092bc   _XINT2_ISR
000094a2   _XINT3_ISR
000094ac   _XINT4_ISR
000094b6   _XINT5_ISR
000094c3   _XINT6_ISR
000094cd   _XINT7_ISR
00007070   _XIntruptRegs
00009aa4   _XNMI_ISR
00008ff7   _XNMI_ISR_Init
00000b20   _XintfRegs
00000700   __STACK_END
00000300   __STACK_SIZE
00000001   __TI_args_main
ffffffff   ___binit__
ffffffff   ___c_args__
0000ad3e   ___cinit__
00009aa4   ___etext__
ffffffff   ___pinit__
00008000   ___text__
00009a61   __args_main
0000dbac   __cleanup_ptr
0000dbae   __dtors_ptr
0000dbaa   __lock
00009a9b   __nop
00009a97   __register_lock
00009a93   __register_unlock
00000400   __stack
0000dba8   __unlock
00009a7a   _abort
0000c110   _alpha
0000c10e   _belta
00009965   _c_int00
0000c02d   _com
0000c02a   _com1
0000c134   _cosVal
00009b20   _cpu_timer0_isr
0000c05b   _delay_Count
0000c062   _delay_PWM
0000aa4e   _delay_t
00008e3c   _delay_t1
0000c057   _delay_time_AD
0000c05a   _delay_time_DA
0000c059   _delay_time_Main_DA
0000c058   _delay_time_rcvd
0000c05d   _delay_time_send
0000c326   _display_date_one
0000c31a   _display_date_two
0000c02c   _display_flag
0000dbb0   _errno
00009a7c   _exit
0000c004   _filter
0000c010   _graph_Switch
0000c880   _graph_data1
0000d680   _graph_data10
0000d300   _graph_data11
0000ca40   _graph_data12
0000cdc0   _graph_data2
0000cc00   _graph_data3
0000c6c0   _graph_data4
0000cf80   _graph_data5
0000d140   _graph_data6
0000d840   _graph_data7
0000d4c0   _graph_data8
0000da00   _graph_data9
0000c018   _i
0000c21e   _ia
0000c21a   _ic
0000c1f8   _invented_integral
0000c21c   _invented_power
0000c00e   _m
00008000   _main
0000c020   _mmm
0000c019   _n
0000c029   _n_cycle
0000c05e   _nobits
0000c218   _omiga_delta
0000c04f   _period
00009502   _rsvd_ISR
0000c136   _sinVal
000099fc   _sqrt
ffffffff   binit
0000ad3e   cinit
00000000   code_start
00009aa4   etext
ffffffff   pinit


GLOBAL SYMBOLS: SORTED BY Symbol Address 

address    name
--------   ----
00000000   code_start
00000001   __TI_args_main
00000300   __STACK_SIZE
00000400   __stack
00000700   __STACK_END
00000880   _DevEmuRegs
00000a80   _FlashRegs
00000ae0   _CsmRegs
00000b00   _AdcMirror
00000b20   _XintfRegs
00000c00   _CpuTimer0Regs
00000c08   _CpuTimer1Regs
00000c10   _CpuTimer2Regs
00000ce0   _PieCtrlRegs
00000d00   _PieVectTable
00001000   _DmaRegs
00005000   _McbspaRegs
00005040   _McbspbRegs
00006000   _ECanaRegs
00006040   _ECanaLAMRegs
00006080   _ECanaMOTSRegs
000060c0   _ECanaMOTORegs
00006100   _ECanaMboxes
00006200   _ECanbRegs
00006240   _ECanbLAMRegs
00006280   _ECanbMOTSRegs
000062c0   _ECanbMOTORegs
00006300   _ECanbMboxes
00006800   _EPwm1Regs
00006840   _EPwm2Regs
00006880   _EPwm3Regs
000068c0   _EPwm4Regs
00006900   _EPwm5Regs
00006940   _EPwm6Regs
00006a00   _ECap1Regs
00006a20   _ECap2Regs
00006a40   _ECap3Regs
00006a60   _ECap4Regs
00006a80   _ECap5Regs
00006aa0   _ECap6Regs
00006b00   _EQep1Regs
00006b40   _EQep2Regs
00006f80   _GpioCtrlRegs
00006fc0   _GpioDataRegs
00006fe0   _GpioIntRegs
00007010   _SysCtrlRegs
00007040   _SpiaRegs
00007050   _SciaRegs
00007070   _XIntruptRegs
00007100   _AdcRegs
00007750   _ScibRegs
00007770   _ScicRegs
00007900   _I2caRegs
00008000   .text
00008000   ___text__
00008000   _main
000083e0   _COM_main
000084f1   _Read_date
00008586   _Display
00008678   _Display_Para
000087f4   _Display_Current
0000883a   _Para_set1
000089ed   _Para_set2
00008b1b   _Para_set_end
00008b47   _Display_Send_Ready
00008b85   _UDC_PIA1
00008bf0   _UDC_PIA2
00008c5c   _UDC_PIB1
00008cc1   _UDC_PIB2
00008d2c   _UDC_PIC1
00008d91   _UDC_PIC2
00008dfc   _Display_CON3S2S
00008e3c   _delay_t1
00008e48   _RD_EEPROM
00008e9e   _WR_EEPROM
00008ee0   _Restore_Factory_Set
00008f7d   _RD_DATA_PROCESS
00008fb1   _WR_DATA_PROCESS
00008fef   _DA_Initialization
00008ff7   _XNMI_ISR_Init
00009013   _InitInterrupts
00009049   _MemCopy
0000905e   _PWM_Initialization
000090aa   _P2P_Balance_Neg_I
00009178   _P2P_Balance_Zero
000091da   _INT13_ISR
000091e7   _INT14_ISR
000091f1   _DATALOG_ISR
000091fb   _RTOSINT_ISR
00009205   _EMUINT_ISR
0000920f   _NMI_ISR
00009219   _ILLEGAL_ISR
00009226   _USER1_ISR
00009230   _USER2_ISR
0000923a   _USER3_ISR
00009244   _USER4_ISR
0000924e   _USER5_ISR
00009258   _USER6_ISR
00009262   _USER7_ISR
0000926c   _USER8_ISR
00009276   _USER9_ISR
00009280   _USER10_ISR
0000928a   _USER11_ISR
00009294   _USER12_ISR
0000929e   _SEQ1INT_ISR
000092a8   _SEQ2INT_ISR
000092b2   _XINT1_ISR
000092bc   _XINT2_ISR
000092c6   _ADCINT_ISR
000092d0   _TINT0_ISR
000092da   _WAKEINT_ISR
000092e4   _EPWM1_TZINT_ISR
000092ee   _EPWM2_TZINT_ISR
000092f8   _EPWM3_TZINT_ISR
00009302   _EPWM4_TZINT_ISR
0000930c   _EPWM5_TZINT_ISR
00009316   _EPWM6_TZINT_ISR
00009320   _EPWM1_INT_ISR
0000932d   _EPWM2_INT_ISR
00009337   _EPWM3_INT_ISR
00009341   _EPWM4_INT_ISR
0000934e   _EPWM5_INT_ISR
00009358   _EPWM6_INT_ISR
00009362   _ECAP1_INT_ISR
0000936c   _ECAP2_INT_ISR
00009376   _ECAP3_INT_ISR
00009380   _ECAP4_INT_ISR
0000938a   _ECAP5_INT_ISR
00009394   _ECAP6_INT_ISR
0000939e   _EQEP1_INT_ISR
000093a8   _EQEP2_INT_ISR
000093b2   _SPIRXINTA_ISR
000093bc   _SPITXINTA_ISR
000093c6   _MRINTB_ISR
000093d0   _MXINTB_ISR
000093da   _MRINTA_ISR
000093e4   _MXINTA_ISR
000093ee   _DINTCH1_ISR
000093f8   _DINTCH2_ISR
00009402   _DINTCH3_ISR
0000940c   _DINTCH4_ISR
00009416   _DINTCH5_ISR
00009420   _DINTCH6_ISR
0000942a   _I2CINT1A_ISR
00009434   _I2CINT2A_ISR
0000943e   _SCIRXINTC_ISR
00009448   _SCITXINTC_ISR
00009452   _SCIRXINTA_ISR
0000945c   _SCITXINTA_ISR
00009466   _SCIRXINTB_ISR
00009470   _SCITXINTB_ISR
0000947a   _ECAN0INTA_ISR
00009484   _ECAN1INTA_ISR
0000948e   _ECAN0INTB_ISR
00009498   _ECAN1INTB_ISR
000094a2   _XINT3_ISR
000094ac   _XINT4_ISR
000094b6   _XINT5_ISR
000094c3   _XINT6_ISR
000094cd   _XINT7_ISR
000094d7   _LVF_ISR
000094e1   _LUF_ISR
000094eb   _EMPTY_ISR
000094f8   _PIE_RESERVED
00009502   _rsvd_ISR
0000950c   _InitXintf32Gpio
00009553   _InitXintf16Gpio
000095ab   _InitXintf
00009612   _InitGpio
000096cc   _InitSysCtrl
000096d5   _ServiceDog
000096df   _DisableDog
000096e7   _InitPll
0000971c   _InitPeripheralClocks
00009777   _InitSciGpio
0000977e   _InitSciaGpio
00009794   _InitScibGpio
000097aa   _InitScicGpio
000097c0   _InitSci
00009805   FS$$DIV
0000988d   _InitCpuTimers0
000098a2   _InitCpuTimers1
000098b7   _InitCpuTimers2
000098cc   _ConfigCpuTimer
00009907   _InitSpiaGpio
0000992d   _InitSpicGpio
00009955   _InitSpi
00009964   _InitSpiGpio
00009965   _c_int00
000099ab   _InitI2C
000099bd   _InitI2CGpio
000099d3   _InitPieCtrl
000099f2   _EnableInterrupts
000099fc   _sqrt
00009a1f   I$$DIV
00009a30   I$$MOD
00009a41   _InitPieVectTable
00009a61   __args_main
00009a7a   C$$EXIT
00009a7a   _abort
00009a7c   _exit
00009a93   __register_unlock
00009a97   __register_lock
00009a9b   __nop
00009aa4   _XNMI_ISR
00009aa4   ___etext__
00009aa4   etext
00009b20   _cpu_timer0_isr
0000a5b5   _Current_PI1
0000a60a   _Current_PI2
0000a65e   _UDC_PI
0000a6ac   _ARCTAN
0000a828   _CON3S2S
0000a868   _ACON3S2S
0000a8a6   _CON2S2R_W
0000a8d9   _ACON2S2R_W
0000a90a   _Sin_Value
0000aa4e   _delay_t
0000aa5a   _DA_OUT
0000aa69   _Main_DA_OUT
0000aac7   _InitFlash
0000aae3   _P2P_Balance_Neg_U
0000ab69   _Local_DC_Process
0000ad0b   _DataCheck
0000ad3e   ___cinit__
0000ad3e   cinit
0000c000   _COM_Tu
0000c001   _COM_Ua
0000c002   _COM_Udb
0000c003   _COM_ki
0000c004   _filter
0000c005   _COM_U
0000c006   _COM_UAB
0000c007   _COM_Iz
0000c008   _COM_Uz
0000c009   _COM_IH3
0000c00a   _COM_IH3_RATE
0000c00b   _COM_IH1_RATE
0000c00c   _COM_IH2_RATE
0000c00d   _COM_IH2
0000c00e   _m
0000c00f   _COM_Ti
0000c010   _graph_Switch
0000c011   _GraphID
0000c012   _COM_Kp
0000c013   _ERROR_flag
0000c014   _Run_Flag
0000c015   _THD_IC
0000c016   _COM_Udc
0000c017   _Negative
0000c018   _i
0000c019   _n
0000c01a   _Current_flag
0000c01b   _Init_para_flag
0000c01c   _COM_IA
0000c01d   _COM_IB
0000c01e   _COM_UBC
0000c01f   _COM_UCA
0000c020   _mmm
0000c021   _THD_IB
0000c022   _INRL_data
0000c023   _COM_I0
0000c024   _THD_IA
0000c025   _P2P_Flag_Neg
0000c026   _P2P_Flag_Zero
0000c027   _ReceivedChar
0000c028   _InPhase_Flag
0000c029   _n_cycle
0000c02a   _com1
0000c02b   _Run_Stop_Flag
0000c02c   _display_flag
0000c02d   _com
0000c02e   _U_bout1
0000c02f   _U_bout2
0000c030   _U_aout2
0000c031   _U_aout3
0000c032   _U_aout1
0000c033   _U_cout3
0000c034   _CloseLoop_Grid
0000c035   _U_cout1
0000c036   _U_cout2
0000c037   _U_bout3
0000c038   _C_way
0000c039   _COM_ALL_rate
0000c03a   _Ts_UDC
0000c03b   _Ts_US
0000c03c   _Ts_Id
0000c03d   _COM_IH1
0000c03e   _COM_IC
0000c03f   _COM_IHB_RATE
0000c040   _COM_UDC_Max
0000c041   _C_data_count1
0000c042   _C_data_count2
0000c043   _Fault_flag
0000c044   _Receive_date_error
0000c045   _Para_SET
0000c046   _DC_Step
0000c047   _COM_EXT_count
0000c048   _COM_UDCREF
0000c049   _COM_Ih_max
0000c04a   _C_data_count3
0000c04b   _State_C2
0000c04c   _State_C3
0000c04d   _EEPROM_No_WRed_Sign
0000c04e   _DA_Switch
0000c04f   _period
0000c050   _State_A3
0000c051   _State_B1
0000c052   _State_A1
0000c053   _State_A2
0000c054   _State_C1
0000c055   _State_B2
0000c056   _State_B3
0000c057   _delay_time_AD
0000c058   _delay_time_rcvd
0000c059   _delay_time_Main_DA
0000c05a   _delay_time_DA
0000c05b   _delay_Count
0000c05c   _Version_Erro_Sign
0000c05d   _delay_time_send
0000c05e   _nobits
0000c05f   _Local_DA_Flag
0000c060   _CpuTimer0Count
0000c061   _NMICount
0000c062   _delay_PWM
0000c063   _Init_i
0000c064   _DataCheck_Flag
0000c065   _Reset_Flag
0000c066   _Data_Check_A1
0000c067   _DA_Signal
0000c068   _Data_Check_A3
0000c069   _Data_Check_A2
0000c06a   _DA1
0000c06b   _DA0
0000c06c   _DA3
0000c06d   _DA2
0000c06e   _Data_Check_B1
0000c06f   _Chose_angle
0000c070   _Data_Check_C3
0000c071   _Factory_Flag
0000c072   _EEPROM_Compare
0000c073   _Data_Check_B3
0000c074   _Data_Check_B2
0000c075   _Data_Check_C2
0000c076   _Data_Check_C1
0000c077   _BiCount
0000c078   _U_aout_close
0000c07a   _U_bout_close
0000c07c   _U_alpha_close
0000c07e   _U_beta_close
0000c080   _U_beta_close1
0000c082   _U_aout_close1
0000c084   _U_cout_close
0000c086   _U_alpha_close1
0000c088   _UDCref_A1
0000c08a   _In_slip
0000c08c   _UDCref_A3
0000c08e   _UDCref_A2
0000c090   _Id_WL
0000c092   _Iq_WL
0000c094   _UDC_PI_integ_A2
0000c096   _UB_P2P
0000c098   _UC_P2P
0000c09a   _UDC_delt_beta
0000c09c   _UA_P2P
0000c09e   _Kp_UNeg
0000c0a0   _U_delta_amp
0000c0a2   _THETA_neg
0000c0a4   _Kp_P2P_Neg
0000c0a6   _U_cout_close1
0000c0a8   _Balance_Start_Time
0000c0aa   _U_qout
0000c0ac   _U_bout_close1
0000c0ae   _UDC_deltC
0000c0b0   _UDC_delt_alpha
0000c0b2   _UDC_deltA
0000c0b4   _UDC_PI_out_B2
0000c0b6   _UDC_PI_integ_B2
0000c0b8   _UDC_PI_out_B3
0000c0ba   _UDC_PI_integ_B3
0000c0bc   _UDC_PI_out_A3
0000c0be   _UDCref_C2
0000c0c0   _UDC_PI_out_B1
0000c0c2   _UDC_PI_integ_B1
0000c0c4   _UDC_PI_out_A1
0000c0c6   _UDC_PI_integ_C3
0000c0c8   _UDCref_C3
0000c0ca   _UDC_PI_integ_A1
0000c0cc   _UDC_PI_out_C1
0000c0ce   _UDC_PI_integ_C1
0000c0d0   _UDC_PI_out_C2
0000c0d2   _Curr_PI2_out
0000c0d4   _U_dout
0000c0d6   _Curr_PI2_integ
0000c0d8   _Curr_PI1_out
0000c0da   _UDCref_B1
0000c0dc   _UDC_deltB
0000c0de   _UDCref_B3
0000c0e0   _UDCref_B2
0000c0e2   _UDC_PI_out_C3
0000c0e4   _I_derror
0000c0e6   _UDC_PI_integ_C2
0000c0e8   _UDCref_C1
0000c0ea   _UDC_PI_integ_A3
0000c0ec   _UDC_PI_out_A2
0000c0ee   _I_qerror
0000c0f0   _DC_A3
0000c0f2   _DC_A2
0000c0f4   _DC_B2
0000c0f6   _DC_B1
0000c0f8   _ADC_VB
0000c0fa   _ADC_VA
0000c0fc   _DC_A1
0000c0fe   _ADC_VC
0000c100   _UDCREF
0000c102   _Q_REF
0000c104   _UDC_Max
0000c106   _U_FtoI
0000c108   _DC_C1
0000c10a   _DC_B3
0000c10c   _DC_C3
0000c10e   _belta
0000c110   _alpha
0000c112   _UA_Display
0000c114   _COM_Udc1
0000c116   _BiVari
0000c118   _LineVolSquare
0000c11a   _BiMaxInitial
0000c11c   _BiMinInitial
0000c11e   _ADC_IB
0000c120   _ADC_IA
0000c122   _DC_C2
0000c124   _ADC_IC
0000c126   _UC_Display
0000c128   _UB_Display
0000c12a   _DisplayLS2
0000c12c   _IC_THETA_neg
0000c12e   _THETA_Zero
0000c130   _IA_THETA_neg
0000c132   _IB_THETA_neg
0000c134   _cosVal
0000c136   _sinVal
0000c138   _Kp_P2P_Zero
0000c13a   _U_Zero_amp
0000c13c   _Udc_delta_Ramp
0000c13e   _U_neg_amp
0000c140   _Curr_PI1_integ
0000c142   _U_delta_slip
0000c144   _UB_THETA_neg
0000c146   _UC_THETA_neg
0000c148   _U_negU_amp
0000c14a   _UDC_Kp
0000c14c   _UB3_pos
0000c14e   _UC3_pos
0000c150   _Ud_Ki
0000c152   _DisplayLS1
0000c154   _UDC_Ki
0000c156   _Ud_Kp
0000c158   _UB1_pos
0000c15a   _UC1_pos
0000c15c   _UA_THETA_neg
0000c15e   _UA1_pos
0000c160   _UC2_pos
0000c162   _UA3_pos
0000c164   _UA2_pos
0000c166   _UB2_pos
0000c168   _UDC_CR1
0000c16a   _UDC_ZIA
0000c16c   _UDC_BR2
0000c16e   _UDC_AR2
0000c170   _UDC_BR1
0000c172   _UDC_AR1
0000c174   _UAB_Z
0000c176   _K_UBC
0000c178   _UBC_Z
0000c17a   _K_IB
0000c17c   _K_IA
0000c17e   _K_IC
0000c180   _UDC_ZA3
0000c182   _UDC_ZA2
0000c184   _K_UB1
0000c186   _K_UB3
0000c188   _K_UB2
0000c18a   _UDC_ZB1
0000c18c   _UDC_ZIC
0000c18e   _UDC_ZIB
0000c190   _K_UA1
0000c192   _K_UA3
0000c194   _K_UA2
0000c196   _UDC_ZA1
0000c198   _UDC_averA
0000c19a   _UDC_averB
0000c19c   _UDC_RfC3
0000c19e   _UDC_RfA3
0000c1a0   _UDC_RfB3
0000c1a2   _UDC_RfC2
0000c1a4   _UAB_Sample
0000c1a6   _UBC_Sample
0000c1a8   _UDC_Rf2
0000c1aa   _UDC_aver
0000c1ac   _UDC_aver_Pre
0000c1ae   _UDC_averC
0000c1b0   _UDC_AR3
0000c1b2   _UDC_BR3
0000c1b4   _UDC_CR2
0000c1b6   _K_UAB
0000c1b8   _UDC_RfB2
0000c1ba   _UDC_RfC1
0000c1bc   _UDC_RfB1
0000c1be   _UDC_RfA1
0000c1c0   _UDC_RfA2
0000c1c2   _DA_Voltage_neg
0000c1c4   _DA_Voltage_A
0000c1c6   _DA_Current_dq
0000c1c8   _DA_OutPhase
0000c1ca   _DA_InterPhase
0000c1cc   _K_UC2
0000c1ce   _UDC_ZB3
0000c1d0   _UDC_ZB2
0000c1d2   _K_UC1
0000c1d4   _DA_Voltage_C
0000c1d6   _DA_Phase_PLL
0000c1d8   _DA_Voltage_B
0000c1da   _UDC_Amp
0000c1dc   _Ipcc_Amp
0000c1de   _UDC_ZC3
0000c1e0   _UDC_ZC1
0000c1e2   _UDC_ZC2
0000c1e4   _K_UC3
0000c1e6   _DA_Voltage
0000c1e8   _DA_Phase
0000c1ea   _DA_Current
0000c1ec   _General_Protect
0000c1ee   _Balance
0000c1f0   _Upcc_Amp
0000c1f2   _Q
0000c1f4   _U_dF
0000c1f6   _Q_start_time
0000c1f8   _invented_integral
0000c1fa   _U_neg_Kp
0000c1fc   _Omiga_t
0000c1fe   _Count
0000c200   _UDC_CR3
0000c202   _Sine_m
0000c204   _U_dF1
0000c206   _U_qF1
0000c208   _U_qF
0000c20a   _OpenGrid
0000c20c   _Soft_Protect
0000c20e   _InOuterPhase
0000c210   _InterPhase
0000c212   _OuterPhase
0000c214   _CloseGrid
0000c216   _Omiga
0000c218   _omiga_delta
0000c21a   _ic
0000c21c   _invented_power
0000c21e   _ia
0000c220   _Id_p
0000c222   _Id_N
0000c224   _UDC_erro
0000c226   _UDC_PI_out
0000c228   _Idref
0000c22a   _UDC_PI_integ
0000c22c   _Ialpha_N
0000c22e   _Ibeta_N
0000c230   _IC_P2P
0000c232   _IA_P2P
0000c234   _IB_P2P
0000c236   _Iq_N
0000c238   _LS3
0000c23a   _I_alpha
0000c23c   _LS2
0000c23e   _U_cout_open
0000c240   _LS1
0000c242   _U_bout_open
0000c244   _I_q
0000c246   _I_amp
0000c248   _I_d
0000c24a   _I_d_Pre
0000c24c   _I_q_Pre
0000c24e   _I_beta
0000c250   _UDC_inA3
0000c252   _UDC_inB1
0000c254   _UDC_inA2
0000c256   _THETA_IC
0000c258   _UDC_inA1
0000c25a   _THETA_IB
0000c25c   _UDC_inC3
0000c25e   _In_Ramp
0000c260   _UDC_inC2
0000c262   _UDC_inB3
0000c264   _UDC_inC1
0000c266   _UDC_inB2
0000c268   _UDC_deltA3
0000c26a   _UDC_deltB1
0000c26c   _UDC_deltA2
0000c26e   _Udc_Ramp
0000c270   _UDC_deltA1
0000c272   _Udc_slip
0000c274   _UDC_deltC3
0000c276   _THETA_IA
0000c278   _UDC_deltC2
0000c27a   _UDC_deltB3
0000c27c   _UDC_deltC1
0000c27e   _UDC_deltB2
0000c280   _UBCDRF
0000c282   _UCADRF
0000c284   _UABDRF
0000c286   _UBC_Pre
0000c288   _UCA_Pre
0000c28a   _UAB_Pre
0000c28c   _U_BDRF
0000c28e   _U_CDRF
0000c290   _U_ADRF
0000c292   _IBSVG
0000c294   _ICSVG
0000c296   _IASVG
0000c298   _UAB_Max
0000c29a   _UAB_Min
0000c29c   _ICSVG_Sample
0000c29e   _IASVG_Sample
0000c2a0   _IBSVG_Sample
0000c2a2   _Start_Balance
0000c2a4   _ICSVG_Max
0000c2a6   _ICSVG_Min
0000c2a8   _IASVG_Min
0000c2aa   _UBC_Min
0000c2ac   _IASVG_Max
0000c2ae   _THETA_COM_I
0000c2b0   _THETA_COM_U2R2S
0000c2b2   _THETA_Com_Test
0000c2b4   _THETA_COM_I2S2R
0000c2b6   _THETA_Com_PLL
0000c2b8   _THETA_COM_I_N
0000c2ba   _US_d
0000c2bc   _U_beta_open_after
0000c2be   _U_aout_open
0000c2c0   _THETA_C_ab
0000c2c2   _THETA_COM_U2R2S_Open
0000c2c4   _US_q
0000c2c6   _U_alpha_open_pre
0000c2c8   _U_beta_open_pre
0000c2ca   _UC_test
0000c2cc   _UA_test
0000c2ce   _UB_test
0000c2d0   _UBC_Max
0000c2d2   _THETA_C_test
0000c2d4   _U_alpha_open_after
0000c2d6   _THETA_C
0000c2d8   _US_Display
0000c2da   _US_Pre
0000c2dc   _US
0000c2de   _Read_control
0000c2e5   _UDCREF_Ref
0000c2ec   _Local_DA
0000c2f4   _Main_DA
0000c300   _DA_Test
0000c308   _Para2_set
0000c311   _Para1_set
0000c31a   _display_date_two
0000c326   _display_date_one
0000c340   _Para2_Intdate
0000c34f   _MsgBuffer_Send
0000c35e   _MsgBuffer_Receive
0000c380   _Para1_Intdate
0000c394   _Com_date
0000c3c0   _Current_IA
0000c4c0   _Current_IB
0000c5c0   _Current_IC
0000c6c0   _graph_data4
0000c880   _graph_data1
0000ca40   _graph_data12
0000cc00   _graph_data3
0000cdc0   _graph_data2
0000cf80   _graph_data5
0000d140   _graph_data6
0000d300   _graph_data11
0000d4c0   _graph_data8
0000d680   _graph_data10
0000d840   _graph_data7
0000da00   _graph_data9
0000db90   _CpuTimer1
0000db98   _CpuTimer2
0000dba0   _CpuTimer0
0000dba8   __unlock
0000dbaa   __lock
0000dbac   __cleanup_ptr
0000dbae   __dtors_ptr
0000dbb0   _errno
0000dbb2   _SIN_TABLE
0000e3b4   _ARCTG_TABLE
0000e5b6   _PieVectTableInit
0000e6ba   _Version_No
0033fff8   _CsmPwl
00380080   _ADC_cal
ffffffff   ___binit__
ffffffff   ___c_args__
ffffffff   ___pinit__
ffffffff   binit
ffffffff   pinit

[701 symbols]
